; Function Attrs: mustprogress nofree norecurse nosync nounwind willreturn memory(argmem: write) uwtable
define void @_ZN6icu_7514SimpleTimeZone13setDSTSavingsEiR10UErrorCode(ptr nocapture noundef nonnull writeonly align 8 dereferenceable(160) %this, i32 noundef %millisSavedDuringDST, ptr nocapture noundef nonnull writeonly align 4 dereferenceable(4) %status) local_unnamed_addr #3 align 2 {
entry:
  %cmp = icmp eq i32 %millisSavedDuringDST, 0
  br i1 %cmp, label %if.then, label %if.else

if.then:                                          ; preds = %entry
  store i32 1, ptr %status, align 4
  br label %if.end

if.else:                                          ; preds = %entry
  %dstSavings = getelementptr inbounds i8, ptr %this, i64 116
  store i32 %millisSavedDuringDST, ptr %dstSavings, align 4
  br label %if.end

if.end:                                           ; preds = %if.else, %if.then
  %transitionRulesInitialized = getelementptr inbounds i8, ptr %this, i64 120
  store i8 0, ptr %transitionRulesInitialized, align 8
  ret void
}